target datalayout = "e-m:e-p270:32:32-p271:32:32-p272:64:64-i64:64-i128:128-f80:128-n8:16:32:64-S128"
target triple = "x86_64-pc-linux-gnu"

@Java_sun_awt_X11_XlibWrapper_IsKanaKeyboard.result = internal global i8 0, align 1

; Function Attrs: nounwind uwtable
define zeroext i8 @Java_sun_awt_X11_XlibWrapper_IsKanaKeyboard(ptr noundef %0, ptr noundef %1, i64 noundef %2) #0 {
  %4 = alloca ptr, align 8
  %5 = alloca ptr, align 8
  %6 = alloca i64, align 8
  %7 = alloca i32, align 4
  %8 = alloca i32, align 4
  %9 = alloca i32, align 4
  %10 = alloca ptr, align 8
  %11 = alloca ptr, align 8
  %12 = alloca i64, align 8
  %13 = alloca i32, align 4
  %14 = alloca i32, align 4
  store ptr %0, ptr %4, align 8
  store ptr %1, ptr %5, align 8
  store i64 %2, ptr %6, align 8
  store i32 0, ptr %14, align 4
  %15 = load i64, ptr %6, align 8
  %16 = inttoptr i64 %15 to ptr
  %17 = call i32 @XDisplayKeycodes(ptr noundef %16, ptr noundef %7, ptr noundef %8)
  %18 = load i64, ptr %6, align 8
  %19 = inttoptr i64 %18 to ptr
  %20 = load i32, ptr %7, align 4
  %21 = trunc i32 %20 to i8
  %22 = load i32, ptr %8, align 4
  %23 = load i32, ptr %7, align 4
  %24 = sub nsw i32 %22, %23
  %25 = add nsw i32 %24, 1
  %26 = call ptr @XGetKeyboardMapping(ptr noundef %19, i8 noundef zeroext %21, i32 noundef %25, ptr noundef %9)
  store ptr %26, ptr %10, align 8
  %27 = load ptr, ptr %10, align 8
  store ptr %27, ptr %11, align 8
  store i32 0, ptr %13, align 4
  br label %28

28:                                               ; preds = %48, %3
  %29 = load i32, ptr %13, align 4
  %30 = load i32, ptr %8, align 4
  %31 = load i32, ptr %7, align 4
  %32 = sub nsw i32 %30, %31
  %33 = add nsw i32 %32, 1
  %34 = load i32, ptr %9, align 4
  %35 = mul nsw i32 %33, %34
  %36 = icmp slt i32 %29, %35
  br i1 %36, label %37, label %51

37:                                               ; preds = %28
  %38 = load ptr, ptr %10, align 8
  %39 = getelementptr inbounds i64, ptr %38, i32 1
  store ptr %39, ptr %10, align 8
  %40 = load i64, ptr %38, align 8
  store i64 %40, ptr %12, align 8
  %41 = load i64, ptr %12, align 8
  %42 = and i64 %41, 65280
  %43 = icmp eq i64 %42, 1024
  br i1 %43, label %44, label %47

44:                                               ; preds = %37
  %45 = load i32, ptr %14, align 4
  %46 = add nsw i32 %45, 1
  store i32 %46, ptr %14, align 4
  br label %47

47:                                               ; preds = %44, %37
  br label %48

48:                                               ; preds = %47
  %49 = load i32, ptr %13, align 4
  %50 = add nsw i32 %49, 1
  store i32 %50, ptr %13, align 4
  br label %28, !llvm.loop !9

51:                                               ; preds = %28
  %52 = load ptr, ptr %11, align 8
  %53 = call i32 @XFree(ptr noundef %52)
  %54 = load i32, ptr %14, align 4
  %55 = icmp sgt i32 %54, 10
  %56 = zext i1 %55 to i32
  %57 = trunc i32 %56 to i8
  store i8 %57, ptr @Java_sun_awt_X11_XlibWrapper_IsKanaKeyboard.result, align 1
  %58 = load i8, ptr @Java_sun_awt_X11_XlibWrapper_IsKanaKeyboard.result, align 1
  %59 = zext i8 %58 to i32
  %60 = icmp ne i32 %59, 0
  %61 = select i1 %60, i32 1, i32 0
  %62 = trunc i32 %61 to i8
  ret i8 %62
}