; Function Attrs: nounwind uwtable
define zeroext range(i8 0, 2) i8 @Java_sun_awt_X11_XlibWrapper_IsKanaKeyboard(ptr nocapture noundef readnone %0, ptr nocapture noundef readnone %1, i64 noundef %2) local_unnamed_addr #0 {
  %4 = alloca i32, align 4
  %5 = alloca i32, align 4
  %6 = alloca i32, align 4
  %7 = inttoptr i64 %2 to ptr
  %8 = call i32 @XDisplayKeycodes(ptr noundef %7, ptr noundef nonnull %4, ptr noundef nonnull %5) #14
  %9 = load i32, ptr %4, align 4
  %10 = trunc i32 %9 to i8
  %11 = load i32, ptr %5, align 4
  %reass.sub = sub i32 %11, %9
  %12 = add i32 %reass.sub, 1
  %13 = call ptr @XGetKeyboardMapping(ptr noundef %7, i8 noundef zeroext %10, i32 noundef %12, ptr noundef nonnull %6) #14
  %14 = load i32, ptr %5, align 4
  %15 = load i32, ptr %4, align 4
  %16 = add i32 %14, 1
  %17 = sub i32 %16, %15
  %18 = load i32, ptr %6, align 4
  %19 = mul nsw i32 %17, %18
  %20 = icmp sgt i32 %19, 0
  br i1 %20, label %.lr.ph, label %._crit_edge

.lr.ph:                                           ; preds = %3, %.lr.ph
  %.014 = phi i32 [ %spec.select, %.lr.ph ], [ 0, %3 ]
  %.0913 = phi i32 [ %26, %.lr.ph ], [ 0, %3 ]
  %.01012 = phi ptr [ %21, %.lr.ph ], [ %13, %3 ]
  %21 = getelementptr inbounds i8, ptr %.01012, i64 8
  %22 = load i64, ptr %.01012, align 8
  %23 = and i64 %22, 65280
  %24 = icmp eq i64 %23, 1024
  %25 = zext i1 %24 to i32
  %spec.select = add nuw nsw i32 %.014, %25
  %26 = add nuw nsw i32 %.0913, 1
  %exitcond.not = icmp eq i32 %26, %19
  br i1 %exitcond.not, label %._crit_edge.loopexit, label %.lr.ph, !llvm.loop !9

._crit_edge.loopexit:                             ; preds = %.lr.ph
  %27 = icmp ugt i32 %spec.select, 10
  %28 = zext i1 %27 to i8
  br label %._crit_edge

._crit_edge:                                      ; preds = %._crit_edge.loopexit, %3
  %.0.lcssa = phi i8 [ 0, %3 ], [ %28, %._crit_edge.loopexit ]
  %29 = call i32 @XFree(ptr noundef %13) #14
  ret i8 %.0.lcssa
}